target datalayout = "e-m:e-p270:32:32-p271:32:32-p272:64:64-i64:64-i128:128-f80:128-n8:16:32:64-S128"
target triple = "x86_64-pc-linux-gnu"

%class.RegMask = type { %union.anon, i32, i32 }
%union.anon = type { [11 x i64] }

; Function Attrs: mustprogress nounwind uwtable
define linkonce_odr hidden noundef i32 @_Z12checked_castIjmET_T0_(i64 noundef %0) #1 comdat {
  %2 = alloca i64, align 8
  %3 = alloca i32, align 4
  store i64 %0, ptr %2, align 8
  %4 = load i64, ptr %2, align 8
  %5 = trunc i64 %4 to i32
  store i32 %5, ptr %3, align 4
  %6 = load i32, ptr %3, align 4
  ret i32 %6
}

; Function Attrs: mustprogress nounwind uwtable
define linkonce_odr hidden noundef i32 @_Z16population_countImEjT_(i64 noundef %0) #1 comdat {
  %2 = alloca i64, align 8
  %3 = alloca i64, align 8
  %4 = alloca i64, align 8
  %5 = alloca i64, align 8
  %6 = alloca i64, align 8
  %7 = alloca i64, align 8
  %8 = alloca i64, align 8
  store i64 %0, ptr %2, align 8
  store i64 -1, ptr %3, align 8
  store i64 6148914691236517205, ptr %4, align 8
  store i64 3689348814741910323, ptr %5, align 8
  store i64 72340172838076673, ptr %6, align 8
  store i64 1085102592571150095, ptr %7, align 8
  %9 = load i64, ptr %2, align 8
  store i64 %9, ptr %8, align 8
  %10 = load i64, ptr %8, align 8
  %11 = lshr i64 %10, 1
  %12 = and i64 %11, 6148914691236517205
  %13 = load i64, ptr %8, align 8
  %14 = sub i64 %13, %12
  store i64 %14, ptr %8, align 8
  %15 = load i64, ptr %8, align 8
  %16 = and i64 %15, 3689348814741910323
  %17 = load i64, ptr %8, align 8
  %18 = lshr i64 %17, 2
  %19 = and i64 %18, 3689348814741910323
  %20 = add i64 %16, %19
  store i64 %20, ptr %8, align 8
  %21 = load i64, ptr %8, align 8
  %22 = load i64, ptr %8, align 8
  %23 = lshr i64 %22, 4
  %24 = add i64 %21, %23
  %25 = and i64 %24, 1085102592571150095
  %26 = mul i64 %25, 72340172838076673
  store i64 %26, ptr %8, align 8
  %27 = load i64, ptr %8, align 8
  %28 = lshr i64 %27, 56
  %29 = call noundef i32 @_Z12checked_castIjmET_T0_(i64 noundef %28)
  ret i32 %29
}

; Function Attrs: mustprogress nounwind uwtable
define hidden noundef i32 @_ZNK7RegMask4SizeEv(ptr noundef nonnull align 8 dereferenceable(96) %0) #1 align 2 {
  %2 = alloca ptr, align 8
  %3 = alloca i32, align 4
  %4 = alloca i32, align 4
  store ptr %0, ptr %2, align 8
  %5 = load ptr, ptr %2, align 8
  store i32 0, ptr %3, align 4
  %6 = getelementptr inbounds %class.RegMask, ptr %5, i32 0, i32 1
  %7 = load i32, ptr %6, align 8
  store i32 %7, ptr %4, align 4
  br label %8

8:                                                ; preds = %22, %1
  %9 = load i32, ptr %4, align 4
  %10 = getelementptr inbounds %class.RegMask, ptr %5, i32 0, i32 2
  %11 = load i32, ptr %10, align 4
  %12 = icmp ule i32 %9, %11
  br i1 %12, label %13, label %25

13:                                               ; preds = %8
  %14 = getelementptr inbounds %class.RegMask, ptr %5, i32 0, i32 0
  %15 = load i32, ptr %4, align 4
  %16 = zext i32 %15 to i64
  %17 = getelementptr inbounds [11 x i64], ptr %14, i64 0, i64 %16
  %18 = load i64, ptr %17, align 8
  %19 = call noundef i32 @_Z16population_countImEjT_(i64 noundef %18)
  %20 = load i32, ptr %3, align 4
  %21 = add i32 %20, %19
  store i32 %21, ptr %3, align 4
  br label %22

22:                                               ; preds = %13
  %23 = load i32, ptr %4, align 4
  %24 = add i32 %23, 1
  store i32 %24, ptr %4, align 4
  br label %8, !llvm.loop !10

25:                                               ; preds = %8
  %26 = load i32, ptr %3, align 4
  ret i32 %26
}