; Function Attrs: mustprogress nofree norecurse nosync nounwind willreturn memory(argmem: read) uwtable
define hidden noundef i32 @_ZNK7RegMask4SizeEv(ptr nocapture noundef nonnull readonly align 8 dereferenceable(96) %0) local_unnamed_addr #2 align 2 {
  %2 = getelementptr inbounds i8, ptr %0, i64 88
  %3 = load i32, ptr %2, align 8
  %4 = getelementptr inbounds i8, ptr %0, i64 92
  %5 = load i32, ptr %4, align 4
  %.not6 = icmp ugt i32 %3, %5
  br i1 %.not6, label %._crit_edge, label %.lr.ph

.lr.ph:                                           ; preds = %1, %.lr.ph
  %.08 = phi i32 [ %12, %.lr.ph ], [ %3, %1 ]
  %.057 = phi i32 [ %11, %.lr.ph ], [ 0, %1 ]
  %6 = zext i32 %.08 to i64
  %7 = getelementptr inbounds [11 x i64], ptr %0, i64 0, i64 %6
  %8 = load i64, ptr %7, align 8
  %9 = tail call range(i64 0, 65) i64 @llvm.ctpop.i64(i64 %8)
  %10 = trunc nuw nsw i64 %9 to i32
  %11 = add i32 %.057, %10
  %12 = add i32 %.08, 1
  %.not = icmp ugt i32 %12, %5
  br i1 %.not, label %._crit_edge, label %.lr.ph, !llvm.loop !8

._crit_edge:                                      ; preds = %.lr.ph, %1
  %.05.lcssa = phi i32 [ 0, %1 ], [ %11, %.lr.ph ]
  ret i32 %.05.lcssa
}